
bootrom.elf:     file format elf64-littleriscv


Disassembly of section .text.start:

0000000000010000 <_start>:
   10000:	0010059b          	addiw	a1,zero,1
   10004:	01f59593          	slli	a1,a1,0x1f
   10008:	30559073          	csrw	mtvec,a1
   1000c:	00000693          	li	a3,0
   10010:	03200713          	li	a4,50
   10014:	01400593          	li	a1,20
   10018:	00000613          	li	a2,0
   1001c:	00c5f00b          	0xc5f00b
   10020:	00a00593          	li	a1,10
   10024:	00100613          	li	a2,1
   10028:	00c5f00b          	0xc5f00b
   1002c:	00000593          	li	a1,0
   10030:	00200613          	li	a2,2
   10034:	00c5f00b          	0xc5f00b
   10038:	00b00593          	li	a1,11
   1003c:	00300613          	li	a2,3
   10040:	00c5f00b          	0xc5f00b
   10044:	00500593          	li	a1,5
   10048:	00400613          	li	a2,4
   1004c:	00c5f00b          	0xc5f00b
   10050:	00300593          	li	a1,3
   10054:	00500613          	li	a2,5
   10058:	00c5f00b          	0xc5f00b
   1005c:	00000593          	li	a1,0
   10060:	00600613          	li	a2,6
   10064:	00c5f00b          	0xc5f00b
   10068:	00800593          	li	a1,8
   1006c:	00700613          	li	a2,7
   10070:	00c5f00b          	0xc5f00b
   10074:	00600593          	li	a1,6
   10078:	00800613          	li	a2,8
   1007c:	00c5f00b          	0xc5f00b
   10080:	00000593          	li	a1,0
   10084:	00900613          	li	a2,9
   10088:	00c5f00b          	0xc5f00b

000000000001008c <loop_qr>:
   1008c:	00000593          	li	a1,0
   10090:	00a00613          	li	a2,10
   10094:	0ec5f00b          	0xec5f00b
   10098:	30300593          	li	a1,771
   1009c:	00b00613          	li	a2,11
   100a0:	0ec5f00b          	0xec5f00b
   100a4:	60600593          	li	a1,1542
   100a8:	00c00613          	li	a2,12
   100ac:	0ec5f00b          	0xec5f00b
   100b0:	000015b7          	lui	a1,0x1
   100b4:	b0a5859b          	addiw	a1,a1,-1270
   100b8:	00d00613          	li	a2,13
   100bc:	0ac5f00b          	0xac5f00b
   100c0:	000015b7          	lui	a1,0x1
   100c4:	c0d5859b          	addiw	a1,a1,-1011
   100c8:	00e00613          	li	a2,14
   100cc:	0ac5f00b          	0xac5f00b
   100d0:	00e00593          	li	a1,14
   100d4:	00f00613          	li	a2,15
   100d8:	12c5f00b          	0x12c5f00b
   100dc:	000015b7          	lui	a1,0x1
   100e0:	f005859b          	addiw	a1,a1,-256
   100e4:	01000613          	li	a2,16
   100e8:	10c5f00b          	0x10c5f00b
   100ec:	000015b7          	lui	a1,0x1
   100f0:	f035859b          	addiw	a1,a1,-253
   100f4:	01100613          	li	a2,17
   100f8:	10c5f00b          	0x10c5f00b
   100fc:	000015b7          	lui	a1,0x1
   10100:	f065859b          	addiw	a1,a1,-250
   10104:	01200613          	li	a2,18
   10108:	10c5f00b          	0x10c5f00b
   1010c:	11000593          	li	a1,272
   10110:	01300613          	li	a2,19
   10114:	0ec5f00b          	0xec5f00b
   10118:	41100593          	li	a1,1041
   1011c:	01400613          	li	a2,20
   10120:	0ec5f00b          	0xec5f00b
   10124:	71200593          	li	a1,1810
   10128:	01500613          	li	a2,21
   1012c:	0ec5f00b          	0xec5f00b
   10130:	000015b7          	lui	a1,0x1
   10134:	4135859b          	addiw	a1,a1,1043
   10138:	01600613          	li	a2,22
   1013c:	0ac5f00b          	0xac5f00b
   10140:	000015b7          	lui	a1,0x1
   10144:	5165859b          	addiw	a1,a1,1302
   10148:	01700613          	li	a2,23
   1014c:	0ac5f00b          	0xac5f00b
   10150:	000015b7          	lui	a1,0x1
   10154:	7105859b          	addiw	a1,a1,1808
   10158:	01800613          	li	a2,24
   1015c:	0ec5f00b          	0xec5f00b
   10160:	000015b7          	lui	a1,0x1
   10164:	7115859b          	addiw	a1,a1,1809
   10168:	01900613          	li	a2,25
   1016c:	0ec5f00b          	0xec5f00b
   10170:	000015b7          	lui	a1,0x1
   10174:	7125859b          	addiw	a1,a1,1810
   10178:	01a00613          	li	a2,26
   1017c:	0ec5f00b          	0xec5f00b
   10180:	000025b7          	lui	a1,0x2
   10184:	8015859b          	addiw	a1,a1,-2047
   10188:	01b00613          	li	a2,27
   1018c:	0cc5f00b          	0xcc5f00b
   10190:	000025b7          	lui	a1,0x2
   10194:	9045859b          	addiw	a1,a1,-1788
   10198:	01c00613          	li	a2,28
   1019c:	0cc5f00b          	0xcc5f00b
   101a0:	000025b7          	lui	a1,0x2
   101a4:	a075859b          	addiw	a1,a1,-1529
   101a8:	01d00613          	li	a2,29
   101ac:	0cc5f00b          	0xcc5f00b
   101b0:	000025b7          	lui	a1,0x2
   101b4:	b1b5859b          	addiw	a1,a1,-1253
   101b8:	01e00613          	li	a2,30
   101bc:	0ec5f00b          	0xec5f00b
   101c0:	000025b7          	lui	a1,0x2
   101c4:	c1c5859b          	addiw	a1,a1,-996
   101c8:	01f00613          	li	a2,31
   101cc:	0ec5f00b          	0xec5f00b
   101d0:	000025b7          	lui	a1,0x2
   101d4:	d1d5859b          	addiw	a1,a1,-739
   101d8:	02000613          	li	a2,32
   101dc:	0ec5f00b          	0xec5f00b
   101e0:	000025b7          	lui	a1,0x2
   101e4:	f1e5859b          	addiw	a1,a1,-226
   101e8:	02100613          	li	a2,33
   101ec:	0ac5f00b          	0xac5f00b
   101f0:	000025b7          	lui	a1,0x2
   101f4:	0215859b          	addiw	a1,a1,33
   101f8:	02200613          	li	a2,34
   101fc:	0ac5f00b          	0xac5f00b
   10200:	02200593          	li	a1,34
   10204:	02300613          	li	a2,35
   10208:	12c5f00b          	0x12c5f00b
   1020c:	000025b7          	lui	a1,0x2
   10210:	31b5859b          	addiw	a1,a1,795
   10214:	02400613          	li	a2,36
   10218:	10c5f00b          	0x10c5f00b
   1021c:	000025b7          	lui	a1,0x2
   10220:	31c5859b          	addiw	a1,a1,796
   10224:	02500613          	li	a2,37
   10228:	10c5f00b          	0x10c5f00b
   1022c:	000025b7          	lui	a1,0x2
   10230:	31d5859b          	addiw	a1,a1,797
   10234:	02600613          	li	a2,38
   10238:	10c5f00b          	0x10c5f00b
   1023c:	21000593          	li	a1,528
   10240:	02700613          	li	a2,39
   10244:	0ec5f00b          	0xec5f00b
   10248:	51100593          	li	a1,1297
   1024c:	02800613          	li	a2,40
   10250:	0ec5f00b          	0xec5f00b
   10254:	000015b7          	lui	a1,0x1
   10258:	8125859b          	addiw	a1,a1,-2030
   1025c:	02900613          	li	a2,41
   10260:	0ec5f00b          	0xec5f00b
   10264:	000035b7          	lui	a1,0x3
   10268:	8275859b          	addiw	a1,a1,-2009
   1026c:	02a00613          	li	a2,42
   10270:	0ac5f00b          	0xac5f00b
   10274:	000035b7          	lui	a1,0x3
   10278:	92a5859b          	addiw	a1,a1,-1750
   1027c:	02b00613          	li	a2,43
   10280:	0ac5f00b          	0xac5f00b
   10284:	22400593          	li	a1,548
   10288:	02c00613          	li	a2,44
   1028c:	0ec5f00b          	0xec5f00b
   10290:	52500593          	li	a1,1317
   10294:	02d00613          	li	a2,45
   10298:	0ec5f00b          	0xec5f00b
   1029c:	000015b7          	lui	a1,0x1
   102a0:	8265859b          	addiw	a1,a1,-2010
   102a4:	02e00613          	li	a2,46
   102a8:	0ec5f00b          	0xec5f00b
   102ac:	000035b7          	lui	a1,0x3
   102b0:	d2c5859b          	addiw	a1,a1,-724
   102b4:	02f00613          	li	a2,47
   102b8:	0ac5f00b          	0xac5f00b
   102bc:	000035b7          	lui	a1,0x3
   102c0:	e2f5859b          	addiw	a1,a1,-465
   102c4:	03000613          	li	a2,48
   102c8:	0ac5f00b          	0xac5f00b
   102cc:	000015b7          	lui	a1,0x1
   102d0:	02b5859b          	addiw	a1,a1,43
   102d4:	03100613          	li	a2,49
   102d8:	0ec5f00b          	0xec5f00b
   102dc:	000015b7          	lui	a1,0x1
   102e0:	12b5859b          	addiw	a1,a1,299
   102e4:	03200613          	li	a2,50
   102e8:	0ec5f00b          	0xec5f00b
   102ec:	000015b7          	lui	a1,0x1
   102f0:	22b5859b          	addiw	a1,a1,555
   102f4:	03300613          	li	a2,51
   102f8:	0ec5f00b          	0xec5f00b
   102fc:	000025b7          	lui	a1,0x2
   10300:	4305859b          	addiw	a1,a1,1072
   10304:	03400613          	li	a2,52
   10308:	0ec5f00b          	0xec5f00b
   1030c:	000025b7          	lui	a1,0x2
   10310:	5305859b          	addiw	a1,a1,1328
   10314:	03500613          	li	a2,53
   10318:	0ec5f00b          	0xec5f00b
   1031c:	000025b7          	lui	a1,0x2
   10320:	6305859b          	addiw	a1,a1,1584
   10324:	03600613          	li	a2,54
   10328:	0ec5f00b          	0xec5f00b
   1032c:	000035b7          	lui	a1,0x3
   10330:	1025859b          	addiw	a1,a1,258
   10334:	03700613          	li	a2,55
   10338:	0cc5f00b          	0xcc5f00b
   1033c:	000035b7          	lui	a1,0x3
   10340:	4375859b          	addiw	a1,a1,1079
   10344:	03800613          	li	a2,56
   10348:	0cc5f00b          	0xcc5f00b
   1034c:	000035b7          	lui	a1,0x3
   10350:	2055859b          	addiw	a1,a1,517
   10354:	03900613          	li	a2,57
   10358:	0cc5f00b          	0xcc5f00b
   1035c:	000035b7          	lui	a1,0x3
   10360:	5395859b          	addiw	a1,a1,1337
   10364:	03a00613          	li	a2,58
   10368:	0cc5f00b          	0xcc5f00b
   1036c:	000035b7          	lui	a1,0x3
   10370:	3085859b          	addiw	a1,a1,776
   10374:	03b00613          	li	a2,59
   10378:	0cc5f00b          	0xcc5f00b
   1037c:	000035b7          	lui	a1,0x3
   10380:	63b5859b          	addiw	a1,a1,1595
   10384:	03c00613          	li	a2,60
   10388:	0cc5f00b          	0xcc5f00b
   1038c:	000045b7          	lui	a1,0x4
   10390:	8385859b          	addiw	a1,a1,-1992
   10394:	03d00613          	li	a2,61
   10398:	0ec5f00b          	0xec5f00b
   1039c:	000045b7          	lui	a1,0x4
   103a0:	a3a5859b          	addiw	a1,a1,-1478
   103a4:	03e00613          	li	a2,62
   103a8:	0ec5f00b          	0xec5f00b
   103ac:	000045b7          	lui	a1,0x4
   103b0:	c3c5859b          	addiw	a1,a1,-964
   103b4:	03f00613          	li	a2,63
   103b8:	0ec5f00b          	0xec5f00b
   103bc:	000045b7          	lui	a1,0x4
   103c0:	e3d5859b          	addiw	a1,a1,-451
   103c4:	04000613          	li	a2,64
   103c8:	0ac5f00b          	0xac5f00b
   103cc:	000045b7          	lui	a1,0x4
   103d0:	f405859b          	addiw	a1,a1,-192
   103d4:	04100613          	li	a2,65
   103d8:	0ac5f00b          	0xac5f00b
   103dc:	04100593          	li	a1,65
   103e0:	04200613          	li	a2,66
   103e4:	12c5f00b          	0x12c5f00b
   103e8:	000045b7          	lui	a1,0x4
   103ec:	2385859b          	addiw	a1,a1,568
   103f0:	04300613          	li	a2,67
   103f4:	10c5f00b          	0x10c5f00b
   103f8:	000045b7          	lui	a1,0x4
   103fc:	23a5859b          	addiw	a1,a1,570
   10400:	04400613          	li	a2,68
   10404:	10c5f00b          	0x10c5f00b
   10408:	000045b7          	lui	a1,0x4
   1040c:	23c5859b          	addiw	a1,a1,572
   10410:	04500613          	li	a2,69
   10414:	10c5f00b          	0x10c5f00b
   10418:	01000593          	li	a1,16
   1041c:	04600613          	li	a2,70
   10420:	0ec5f00b          	0xec5f00b
   10424:	31100593          	li	a1,785
   10428:	04700613          	li	a2,71
   1042c:	0ec5f00b          	0xec5f00b
   10430:	61200593          	li	a1,1554
   10434:	04800613          	li	a2,72
   10438:	0ec5f00b          	0xec5f00b
   1043c:	000045b7          	lui	a1,0x4
   10440:	7465859b          	addiw	a1,a1,1862
   10444:	04900613          	li	a2,73
   10448:	0ac5f00b          	0xac5f00b
   1044c:	000055b7          	lui	a1,0x5
   10450:	8495859b          	addiw	a1,a1,-1975
   10454:	04a00613          	li	a2,74
   10458:	0ac5f00b          	0xac5f00b
   1045c:	000015b7          	lui	a1,0x1
   10460:	9175859b          	addiw	a1,a1,-1769
   10464:	04b00613          	li	a2,75
   10468:	0ac5f00b          	0xac5f00b
   1046c:	000015b7          	lui	a1,0x1
   10470:	92b5859b          	addiw	a1,a1,-1749
   10474:	04c00613          	li	a2,76
   10478:	0ac5f00b          	0xac5f00b
   1047c:	12400593          	li	a1,292
   10480:	04d00613          	li	a2,77
   10484:	0ec5f00b          	0xec5f00b
   10488:	42500593          	li	a1,1061
   1048c:	04e00613          	li	a2,78
   10490:	0ec5f00b          	0xec5f00b
   10494:	72600593          	li	a1,1830
   10498:	04f00613          	li	a2,79
   1049c:	0ec5f00b          	0xec5f00b
   104a0:	000055b7          	lui	a1,0x5
   104a4:	e4d5859b          	addiw	a1,a1,-435
   104a8:	05000613          	li	a2,80
   104ac:	0ac5f00b          	0xac5f00b
   104b0:	000055b7          	lui	a1,0x5
   104b4:	f505859b          	addiw	a1,a1,-176
   104b8:	05100613          	li	a2,81
   104bc:	0ac5f00b          	0xac5f00b
   104c0:	000015b7          	lui	a1,0x1
   104c4:	9305859b          	addiw	a1,a1,-1744
   104c8:	05200613          	li	a2,82
   104cc:	0ac5f00b          	0xac5f00b
   104d0:	24300593          	li	a1,579
   104d4:	05300613          	li	a2,83
   104d8:	0ec5f00b          	0xec5f00b
   104dc:	54400593          	li	a1,1348
   104e0:	05400613          	li	a2,84
   104e4:	0ec5f00b          	0xec5f00b
   104e8:	000015b7          	lui	a1,0x1
   104ec:	8455859b          	addiw	a1,a1,-1979
   104f0:	05500613          	li	a2,85
   104f4:	0ec5f00b          	0xec5f00b
   104f8:	000055b7          	lui	a1,0x5
   104fc:	4535859b          	addiw	a1,a1,1107
   10500:	05600613          	li	a2,86
   10504:	0ac5f00b          	0xac5f00b
   10508:	000055b7          	lui	a1,0x5
   1050c:	5565859b          	addiw	a1,a1,1366
   10510:	05700613          	li	a2,87
   10514:	0ac5f00b          	0xac5f00b
   10518:	000015b7          	lui	a1,0x1
   1051c:	04a5859b          	addiw	a1,a1,74
   10520:	05800613          	li	a2,88
   10524:	0ec5f00b          	0xec5f00b
   10528:	000015b7          	lui	a1,0x1
   1052c:	14b5859b          	addiw	a1,a1,331
   10530:	05900613          	li	a2,89
   10534:	0ec5f00b          	0xec5f00b
   10538:	000015b7          	lui	a1,0x1
   1053c:	24c5859b          	addiw	a1,a1,588
   10540:	05a00613          	li	a2,90
   10544:	0ec5f00b          	0xec5f00b
   10548:	000065b7          	lui	a1,0x6
   1054c:	9585859b          	addiw	a1,a1,-1704
   10550:	05b00613          	li	a2,91
   10554:	0ac5f00b          	0xac5f00b
   10558:	000065b7          	lui	a1,0x6
   1055c:	a5b5859b          	addiw	a1,a1,-1445
   10560:	05c00613          	li	a2,92
   10564:	0ac5f00b          	0xac5f00b
   10568:	000025b7          	lui	a1,0x2
   1056c:	44a5859b          	addiw	a1,a1,1098
   10570:	05d00613          	li	a2,93
   10574:	0ec5f00b          	0xec5f00b
   10578:	000025b7          	lui	a1,0x2
   1057c:	54b5859b          	addiw	a1,a1,1355
   10580:	05e00613          	li	a2,94
   10584:	0ec5f00b          	0xec5f00b
   10588:	000025b7          	lui	a1,0x2
   1058c:	64c5859b          	addiw	a1,a1,1612
   10590:	05f00613          	li	a2,95
   10594:	0ec5f00b          	0xec5f00b
   10598:	000065b7          	lui	a1,0x6
   1059c:	e5d5859b          	addiw	a1,a1,-419
   105a0:	06000613          	li	a2,96
   105a4:	0ac5f00b          	0xac5f00b
   105a8:	000065b7          	lui	a1,0x6
   105ac:	f605859b          	addiw	a1,a1,-160
   105b0:	06100613          	li	a2,97
   105b4:	0ac5f00b          	0xac5f00b
   105b8:	000045b7          	lui	a1,0x4
   105bc:	34a5859b          	addiw	a1,a1,842
   105c0:	06200613          	li	a2,98
   105c4:	0ec5f00b          	0xec5f00b
   105c8:	000045b7          	lui	a1,0x4
   105cc:	44b5859b          	addiw	a1,a1,1099
   105d0:	06300613          	li	a2,99
   105d4:	0ec5f00b          	0xec5f00b
   105d8:	000045b7          	lui	a1,0x4
   105dc:	54c5859b          	addiw	a1,a1,1356
   105e0:	06400613          	li	a2,100
   105e4:	0ec5f00b          	0xec5f00b
   105e8:	000065b7          	lui	a1,0x6
   105ec:	3625859b          	addiw	a1,a1,866
   105f0:	06500613          	li	a2,101
   105f4:	0ac5f00b          	0xac5f00b
   105f8:	000065b7          	lui	a1,0x6
   105fc:	4655859b          	addiw	a1,a1,1125
   10600:	06600613          	li	a2,102
   10604:	0ac5f00b          	0xac5f00b
   10608:	000015b7          	lui	a1,0x1
   1060c:	1515859b          	addiw	a1,a1,337
   10610:	06700613          	li	a2,103
   10614:	0ec5f00b          	0xec5f00b
   10618:	000015b7          	lui	a1,0x1
   1061c:	2525859b          	addiw	a1,a1,594
   10620:	06800613          	li	a2,104
   10624:	0ec5f00b          	0xec5f00b
   10628:	000075b7          	lui	a1,0x7
   1062c:	8675859b          	addiw	a1,a1,-1945
   10630:	06900613          	li	a2,105
   10634:	0ac5f00b          	0xac5f00b
   10638:	000025b7          	lui	a1,0x2
   1063c:	5515859b          	addiw	a1,a1,1361
   10640:	06a00613          	li	a2,106
   10644:	0ec5f00b          	0xec5f00b
   10648:	000025b7          	lui	a1,0x2
   1064c:	6525859b          	addiw	a1,a1,1618
   10650:	06b00613          	li	a2,107
   10654:	0ec5f00b          	0xec5f00b
   10658:	000075b7          	lui	a1,0x7
   1065c:	b6a5859b          	addiw	a1,a1,-1174
   10660:	06c00613          	li	a2,108
   10664:	0ac5f00b          	0xac5f00b
   10668:	000045b7          	lui	a1,0x4
   1066c:	4515859b          	addiw	a1,a1,1105
   10670:	06d00613          	li	a2,109
   10674:	0ec5f00b          	0xec5f00b
   10678:	000045b7          	lui	a1,0x4
   1067c:	5525859b          	addiw	a1,a1,1362
   10680:	06e00613          	li	a2,110
   10684:	0ec5f00b          	0xec5f00b
   10688:	000075b7          	lui	a1,0x7
   1068c:	e6d5859b          	addiw	a1,a1,-403
   10690:	06f00613          	li	a2,111
   10694:	0ac5f00b          	0xac5f00b
   10698:	000015b7          	lui	a1,0x1
   1069c:	2575859b          	addiw	a1,a1,599
   106a0:	07000613          	li	a2,112
   106a4:	0ec5f00b          	0xec5f00b
   106a8:	000025b7          	lui	a1,0x2
   106ac:	6575859b          	addiw	a1,a1,1623
   106b0:	07100613          	li	a2,113
   106b4:	0ec5f00b          	0xec5f00b
   106b8:	000045b7          	lui	a1,0x4
   106bc:	5575859b          	addiw	a1,a1,1367
   106c0:	07200613          	li	a2,114
   106c4:	0ec5f00b          	0xec5f00b
   106c8:	000015b7          	lui	a1,0x1
   106cc:	95c5859b          	addiw	a1,a1,-1700
   106d0:	00000613          	li	a2,0
   106d4:	0ac5f00b          	0xac5f00b
   106d8:	000015b7          	lui	a1,0x1
   106dc:	9615859b          	addiw	a1,a1,-1695
   106e0:	00100613          	li	a2,1
   106e4:	0ac5f00b          	0xac5f00b
   106e8:	000015b7          	lui	a1,0x1
   106ec:	9665859b          	addiw	a1,a1,-1690
   106f0:	00200613          	li	a2,2
   106f4:	0ac5f00b          	0xac5f00b
   106f8:	000015b7          	lui	a1,0x1
   106fc:	9695859b          	addiw	a1,a1,-1687
   10700:	00300613          	li	a2,3
   10704:	0ac5f00b          	0xac5f00b
   10708:	000015b7          	lui	a1,0x1
   1070c:	96c5859b          	addiw	a1,a1,-1684
   10710:	00400613          	li	a2,4
   10714:	0ac5f00b          	0xac5f00b
   10718:	000015b7          	lui	a1,0x1
   1071c:	96f5859b          	addiw	a1,a1,-1681
   10720:	00500613          	li	a2,5
   10724:	0ac5f00b          	0xac5f00b
   10728:	000015b7          	lui	a1,0x1
   1072c:	9705859b          	addiw	a1,a1,-1680
   10730:	00600613          	li	a2,6
   10734:	0ac5f00b          	0xac5f00b
   10738:	000015b7          	lui	a1,0x1
   1073c:	9715859b          	addiw	a1,a1,-1679
   10740:	00700613          	li	a2,7
   10744:	0ac5f00b          	0xac5f00b
   10748:	000015b7          	lui	a1,0x1
   1074c:	9725859b          	addiw	a1,a1,-1678
   10750:	00800613          	li	a2,8
   10754:	0ac5f00b          	0xac5f00b
   10758:	00168693          	addi	a3,a3,1
   1075c:	92e698e3          	bne	a3,a4,1008c <loop_qr>
   10760:	00000597          	auipc	a1,0x0
   10764:	00858593          	addi	a1,a1,8 # 10768 <loop>

0000000000010768 <loop>:
   10768:	00058067          	jr	a1
   1076c:	00040067          	jr	s0

Disassembly of section .text.hang:

0000000000010800 <_hang>:
   10800:	7c105073          	csrwi	0x7c1,0
   10804:	f1402573          	csrr	a0,mhartid
   10808:	00000597          	auipc	a1,0x0
   1080c:	07858593          	addi	a1,a1,120 # 10880 <_dtb>
   10810:	30405073          	csrwi	mie,0
   10814:	10500073          	wfi
   10818:	ffdff06f          	j	10814 <_hang+0x14>
